(dp1
S'DOWN'
p2
(lp3
(I395
I357
tp4
a(I369
I359
tp5
a(I361
I357
tp6
a(I355
I354
tp7
a(I351
I350
tp8
a(I347
I344
tp9
a(I341
I339
tp10
a(I336
I335
tp11
a(I333
I330
tp12
a(I329
I326
tp13
a(I325
I323
tp14
a(I320
I317
tp15
a(I316
I313
tp16
a(I312
I309
tp17
a(I307
I304
tp18
a(I305
I302
tp19
a(I299
I296
tp20
a(I297
I294
tp21
a(I292
I289
tp22
a(I289
I286
tp23
a(I285
I282
tp24
a(I281
I278
tp25
a(I278
I275
tp26
a(I274
I271
tp27
a(I272
I269
tp28
a(I267
I264
tp29
a(I265
I263
tp30
a(I261
I258
tp31
a(I259
I256
tp32
a(I255
I253
tp33
a(I252
I249
tp34
a(I250
I247
tp35
a(I246
I243
tp36
a(I244
I241
tp37
a(I240
I238
tp38
a(I239
I236
tp39
a(I235
I233
tp40
a(I232
I230
tp41
a(I231
I228
tp42
a(I227
I224
tp43
a(I226
I223
tp44
a(I222
I219
tp45
a(I221
I219
tp46
a(I218
I215
tp47
a(I216
I213
tp48
a(I214
I211
tp49
a(I211
I208
tp50
a(I210
I207
tp51
a(I206
I204
tp52
a(I206
I203
tp53
a(I203
I200
tp54
a(I202
I199
tp55
a(I199
I197
tp56
a(I197
I195
tp57
a(I196
I193
tp58
a(I193
I190
tp59
a(I193
I190
tp60
a(I190
I187
tp61
a(I190
I187
tp62
a(I187
I185
tp63
a(I186
I183
tp64
a(I184
I182
tp65
a(I182
I179
tp66
a(I182
I179
tp67
a(I179
I177
tp68
a(I180
I177
tp69
a(I177
I174
tp70
a(I177
I174
tp71
a(I175
I172
tp72
a(I174
I171
tp73
a(I173
I170
tp74
a(I171
I168
tp75
a(I172
I169
tp76
a(I169
I166
tp77
a(I169
I166
tp78
a(I167
I164
tp79
a(I167
I164
tp80
a(I166
I163
tp81
a(I164
I162
tp82
a(I165
I162
tp83
a(I162
I160
tp84
a(I163
I160
tp85
a(I161
I158
tp86
a(I161
I159
tp87
a(I160
I157
tp88
a(I159
I156
tp89
a(I159
I156
tp90
a(I157
I154
tp91
a(I158
I155
tp92
a(I156
I153
tp93
a(I157
I154
tp94
a(I155
I152
tp95
a(I155
I152
tp96
a(I154
I151
tp97
a(I153
I150
tp98
a(I154
I151
tp99
a(I151
I149
tp100
a(I153
I150
tp101
a(I151
I148
tp102
a(I152
I148
tp103
asS'LEFT'
p104
(lp105
(I150
I148
tp106
a(I150
I147
tp107
a(I150
I147
tp108
a(I149
I146
tp109
a(I150
I147
tp110
a(I148
I145
tp111
a(I149
I146
tp112
a(I147
I145
tp113
a(I148
I145
tp114
a(I147
I144
tp115
a(I146
I143
tp116
a(I147
I144
tp117
a(I145
I142
tp118
a(I146
I144
tp119
a(I144
I142
tp120
a(I146
I143
tp121
a(I145
I142
tp122
a(I144
I142
tp123
a(I145
I142
tp124
a(I144
I141
tp125
a(I145
I142
tp126
a(I143
I140
tp127
a(I144
I141
tp128
a(I143
I140
tp129
a(I143
I141
tp130
a(I143
I140
tp131
a(I142
I140
tp132
a(I143
I140
tp133
a(I141
I139
tp134
a(I143
I140
tp135
a(I141
I139
tp136
a(I143
I139
tp137
a(I142
I139
tp138
a(I141
I139
tp139
a(I142
I139
tp140
a(I141
I138
tp141
a(I142
I139
tp142
a(I140
I138
tp143
a(I142
I139
tp144
a(I140
I138
tp145
a(I141
I138
tp146
a(I141
I138
tp147
a(I140
I137
tp148
a(I141
I138
tp149
a(I139
I136
tp150
a(I141
I138
tp151
a(I139
I137
tp152
a(I141
I137
tp153
a(I140
I137
tp154
a(I140
I137
tp155
a(I140
I137
tp156
a(I139
I137
tp157
a(I140
I137
tp158
a(I139
I136
tp159
a(I141
I137
tp160
a(I139
I136
tp161
a(I140
I137
tp162
a(I139
I136
tp163
a(I139
I136
tp164
a(I140
I137
tp165
a(I138
I136
tp166
a(I140
I137
tp167
a(I138
I135
tp168
a(I140
I137
tp169
a(I139
I136
tp170
a(I139
I136
tp171
a(I139
I136
tp172
a(I138
I135
tp173
a(I140
I137
tp174
a(I138
I135
tp175
a(I139
I137
tp176
a(I138
I135
tp177
a(I139
I136
tp178
a(I138
I136
tp179
a(I138
I135
tp180
a(I139
I136
tp181
a(I137
I135
tp182
a(I139
I136
tp183
a(I137
I134
tp184
a(I139
I136
tp185
a(I138
I135
tp186
a(I138
I135
tp187
a(I138
I135
tp188
a(I137
I135
tp189
a(I139
I135
tp190
a(I137
I134
tp191
a(I139
I136
tp192
a(I137
I134
tp193
a(I138
I135
tp194
a(I137
I135
tp195
a(I137
I134
tp196
a(I138
I135
tp197
a(I137
I134
tp198
a(I138
I136
tp199
a(I137
I134
tp200
a(I138
I135
tp201
a(I137
I134
tp202
a(I137
I134
tp203
a(I138
I135
tp204
a(I137
I134
tp205
asS'RIGHT'
p206
(lp207
(I138
I135
tp208
a(I136
I134
tp209
a(I138
I136
tp210
a(I136
I134
tp211
a(I137
I135
tp212
a(I137
I134
tp213
a(I137
I134
tp214
a(I138
I135
tp215
a(I136
I134
tp216
a(I138
I135
tp217
a(I136
I134
tp218
a(I138
I135
tp219
a(I137
I134
tp220
a(I137
I134
tp221
a(I137
I134
tp222
a(I136
I134
tp223
a(I138
I135
tp224
a(I136
I134
tp225
a(I138
I135
tp226
a(I137
I134
tp227
a(I138
I135
tp228
a(I137
I135
tp229
a(I137
I134
tp230
a(I138
I135
tp231
a(I136
I133
tp232
a(I138
I135
tp233
a(I136
I134
tp234
a(I138
I135
tp235
a(I137
I134
tp236
a(I137
I134
tp237
a(I137
I135
tp238
a(I136
I134
tp239
a(I138
I135
tp240
a(I136
I134
tp241
a(I138
I135
tp242
a(I136
I134
tp243
a(I138
I135
tp244
a(I137
I135
tp245
a(I137
I134
tp246
a(I138
I135
tp247
a(I136
I134
tp248
a(I138
I135
tp249
a(I136
I134
tp250
a(I138
I135
tp251
a(I137
I134
tp252
a(I137
I134
tp253
a(I137
I135
tp254
a(I136
I134
tp255
a(I138
I135
tp256
a(I136
I133
tp257
a(I138
I135
tp258
a(I136
I134
tp259
a(I138
I135
tp260
a(I137
I134
tp261
a(I136
I134
tp262
a(I137
I134
tp263
a(I136
I133
tp264
a(I138
I135
tp265
a(I136
I133
tp266
a(I138
I134
tp267
a(I136
I134
tp268
a(I137
I134
tp269
a(I137
I134
tp270
a(I136
I133
tp271
a(I137
I134
tp272
a(I136
I133
tp273
a(I138
I135
tp274
a(I136
I133
tp275
a(I137
I134
tp276
a(I137
I134
tp277
a(I136
I133
tp278
a(I137
I134
tp279
a(I136
I133
tp280
a(I137
I134
tp281
a(I136
I133
tp282
a(I137
I134
tp283
a(I136
I133
tp284
a(I137
I134
tp285
a(I137
I134
tp286
a(I136
I133
tp287
a(I137
I134
tp288
a(I136
I133
tp289
a(I138
I135
tp290
a(I136
I133
tp291
a(I137
I134
tp292
a(I136
I134
tp293
a(I136
I133
tp294
a(I137
I134
tp295
a(I136
I133
tp296
a(I137
I134
tp297
a(I136
I133
tp298
a(I138
I134
tp299
a(I136
I133
tp300
a(I137
I134
tp301
a(I136
I134
tp302
a(I136
I133
tp303
a(I137
I134
tp304
a(I135
I132
tp305
a(I137
I134
tp306
a(I135
I132
tp307
asS'DOWN-RIGHT'
p308
(lp309
(I137
I134
tp310
a(I136
I133
tp311
a(I136
I133
tp312
a(I136
I133
tp313
a(I135
I132
tp314
a(I137
I134
tp315
a(I135
I132
tp316
a(I137
I134
tp317
a(I135
I132
tp318
a(I136
I133
tp319
a(I136
I133
tp320
a(I135
I132
tp321
a(I136
I133
tp322
a(I135
I132
tp323
a(I137
I133
tp324
a(I135
I132
tp325
a(I136
I133
tp326
a(I135
I133
tp327
a(I135
I132
tp328
a(I136
I133
tp329
a(I135
I132
tp330
a(I136
I134
tp331
a(I135
I132
tp332
a(I137
I134
tp333
a(I136
I133
tp334
a(I136
I133
tp335
a(I136
I133
tp336
a(I135
I133
tp337
a(I137
I134
tp338
a(I135
I132
tp339
a(I137
I134
tp340
a(I135
I132
tp341
a(I137
I134
tp342
a(I136
I133
tp343
a(I136
I133
tp344
a(I136
I133
tp345
a(I135
I133
tp346
a(I137
I134
tp347
a(I135
I133
tp348
a(I137
I134
tp349
a(I135
I133
tp350
a(I136
I133
tp351
a(I136
I133
tp352
a(I135
I132
tp353
a(I137
I133
tp354
a(I135
I132
tp355
a(I137
I134
tp356
a(I135
I133
tp357
a(I137
I134
tp358
a(I136
I133
tp359
a(I136
I133
tp360
a(I136
I133
tp361
a(I135
I133
tp362
a(I137
I134
tp363
a(I135
I132
tp364
a(I137
I134
tp365
a(I135
I132
tp366
a(I136
I133
tp367
a(I136
I133
tp368
a(I135
I133
tp369
a(I137
I134
tp370
a(I135
I133
tp371
a(I137
I134
tp372
a(I135
I132
tp373
a(I137
I134
tp374
a(I136
I133
tp375
a(I136
I133
tp376
a(I136
I133
tp377
a(I135
I133
tp378
a(I137
I134
tp379
a(I135
I133
tp380
a(I137
I134
tp381
a(I135
I133
tp382
a(I137
I134
tp383
a(I136
I133
tp384
a(I135
I133
tp385
a(I137
I134
tp386
a(I135
I133
tp387
a(I137
I134
tp388
a(I135
I133
tp389
a(I137
I134
tp390
a(I136
I133
tp391
a(I136
I133
tp392
a(I136
I133
tp393
a(I135
I133
tp394
a(I137
I134
tp395
a(I135
I133
tp396
a(I137
I134
tp397
a(I135
I132
tp398
a(I137
I134
tp399
a(I136
I133
tp400
a(I136
I133
tp401
a(I137
I134
tp402
a(I135
I133
tp403
a(I137
I134
tp404
a(I135
I133
tp405
a(I137
I134
tp406
a(I136
I133
tp407
a(I136
I133
tp408
a(I136
I133
tp409
asS'STRAIGHT'
p410
(lp411
(I135
I133
tp412
a(I137
I134
tp413
a(I135
I132
tp414
a(I137
I134
tp415
a(I135
I133
tp416
a(I136
I134
tp417
a(I136
I133
tp418
a(I135
I133
tp419
a(I136
I133
tp420
a(I135
I132
tp421
a(I137
I134
tp422
a(I135
I132
tp423
a(I137
I134
tp424
a(I135
I133
tp425
a(I136
I133
tp426
a(I136
I133
tp427
a(I135
I132
tp428
a(I137
I134
tp429
a(I135
I132
tp430
a(I137
I134
tp431
a(I135
I133
tp432
a(I137
I134
tp433
a(I136
I133
tp434
a(I135
I133
tp435
a(I136
I134
tp436
a(I135
I132
tp437
a(I137
I134
tp438
a(I135
I133
tp439
a(I137
I134
tp440
a(I136
I133
tp441
a(I136
I134
tp442
a(I136
I133
tp443
a(I135
I133
tp444
a(I137
I134
tp445
a(I135
I132
tp446
a(I137
I134
tp447
a(I135
I133
tp448
a(I136
I133
tp449
a(I136
I133
tp450
a(I136
I133
tp451
a(I136
I133
tp452
a(I135
I132
tp453
a(I137
I134
tp454
a(I135
I132
tp455
a(I137
I134
tp456
a(I135
I132
tp457
a(I136
I133
tp458
a(I136
I133
tp459
a(I135
I132
tp460
a(I136
I133
tp461
a(I135
I132
tp462
a(I137
I134
tp463
a(I135
I133
tp464
a(I136
I133
tp465
a(I136
I133
tp466
a(I135
I132
tp467
a(I136
I133
tp468
a(I135
I132
tp469
a(I137
I133
tp470
a(I135
I132
tp471
a(I137
I134
tp472
a(I135
I133
tp473
a(I136
I133
tp474
a(I136
I133
tp475
a(I135
I132
tp476
a(I136
I133
tp477
a(I135
I132
tp478
a(I137
I134
tp479
a(I135
I132
tp480
a(I136
I134
tp481
a(I135
I133
tp482
a(I135
I133
tp483
a(I136
I133
tp484
a(I135
I132
tp485
a(I137
I133
tp486
a(I135
I132
tp487
a(I137
I134
tp488
a(I135
I133
tp489
a(I136
I133
tp490
a(I136
I133
tp491
a(I135
I133
tp492
a(I137
I134
tp493
a(I135
I133
tp494
a(I137
I134
tp495
a(I135
I133
tp496
a(I137
I134
tp497
a(I136
I133
tp498
a(I136
I133
tp499
a(I136
I133
tp500
a(I135
I132
tp501
a(I137
I134
tp502
a(I135
I132
tp503
a(I137
I134
tp504
a(I135
I133
tp505
a(I137
I134
tp506
a(I136
I134
tp507
a(I135
I133
tp508
a(I137
I134
tp509
a(I135
I133
tp510
a(I137
I134
tp511
asS'DOWN-LEFT'
p512
(lp513
(I136
I133
tp514
a(I137
I134
tp515
a(I136
I133
tp516
a(I136
I133
tp517
a(I136
I134
tp518
a(I135
I133
tp519
a(I137
I134
tp520
a(I135
I132
tp521
a(I137
I134
tp522
a(I135
I132
tp523
a(I136
I133
tp524
a(I135
I133
tp525
a(I135
I132
tp526
a(I136
I134
tp527
a(I135
I132
tp528
a(I137
I134
tp529
a(I135
I132
tp530
a(I137
I134
tp531
a(I135
I133
tp532
a(I136
I133
tp533
a(I136
I133
tp534
a(I135
I132
tp535
a(I137
I133
tp536
a(I135
I132
tp537
a(I137
I134
tp538
a(I135
I132
tp539
a(I136
I133
tp540
a(I135
I133
tp541
a(I135
I132
tp542
a(I136
I133
tp543
a(I134
I132
tp544
a(I136
I134
tp545
a(I134
I132
tp546
a(I136
I133
tp547
a(I135
I132
tp548
a(I135
I132
tp549
a(I135
I133
tp550
a(I134
I132
tp551
a(I136
I133
tp552
a(I134
I132
tp553
a(I136
I133
tp554
a(I135
I132
tp555
a(I136
I133
tp556
a(I135
I133
tp557
a(I135
I132
tp558
a(I136
I133
tp559
a(I134
I132
tp560
a(I136
I133
tp561
a(I134
I131
tp562
a(I136
I133
tp563
a(I135
I132
tp564
a(I135
I132
tp565
a(I135
I133
tp566
a(I134
I132
tp567
a(I136
I133
tp568
a(I134
I131
tp569
a(I136
I133
tp570
a(I134
I132
tp571
a(I136
I133
tp572
a(I135
I132
tp573
a(I135
I132
tp574
a(I136
I133
tp575
a(I134
I131
tp576
a(I136
I133
tp577
a(I134
I131
tp578
a(I136
I133
tp579
a(I135
I132
tp580
a(I135
I132
tp581
a(I135
I132
tp582
a(I134
I131
tp583
a(I136
I133
tp584
a(I134
I131
tp585
a(I136
I133
tp586
a(I134
I132
tp587
a(I136
I133
tp588
a(I135
I132
tp589
a(I135
I132
tp590
a(I135
I132
tp591
a(I134
I132
tp592
a(I136
I133
tp593
a(I134
I132
tp594
a(I136
I133
tp595
a(I135
I132
tp596
a(I135
I133
tp597
a(I135
I133
tp598
a(I134
I132
tp599
a(I136
I133
tp600
a(I134
I131
tp601
a(I136
I133
tp602
a(I134
I131
tp603
a(I136
I133
tp604
a(I135
I132
tp605
a(I135
I132
tp606
a(I135
I133
tp607
a(I135
I132
tp608
a(I136
I134
tp609
a(I134
I132
tp610
a(I137
I133
tp611
a(I135
I132
tp612
a(I136
I133
tp613
asS'UP-LEFT'
p614
(lp615
(I136
I133
tp616
a(I135
I132
tp617
a(I137
I134
tp618
a(I135
I132
tp619
a(I137
I134
tp620
a(I135
I132
tp621
a(I137
I133
tp622
a(I135
I132
tp623
a(I136
I133
tp624
a(I136
I134
tp625
a(I135
I132
tp626
a(I138
I135
tp627
a(I134
I131
tp628
a(I139
I134
tp629
a(I135
I133
tp630
a(I137
I134
tp631
a(I136
I133
tp632
a(I135
I133
tp633
a(I137
I134
tp634
a(I135
I132
tp635
a(I138
I135
tp636
a(I135
I132
tp637
a(I139
I135
tp638
a(I136
I133
tp639
a(I137
I133
tp640
a(I137
I134
tp641
a(I135
I133
tp642
a(I138
I135
tp643
a(I135
I132
tp644
a(I138
I135
tp645
a(I135
I133
tp646
a(I138
I134
tp647
a(I136
I134
tp648
a(I136
I133
tp649
a(I137
I135
tp650
a(I135
I133
tp651
a(I138
I135
tp652
a(I135
I133
tp653
a(I137
I135
tp654
a(I136
I134
tp655
a(I137
I134
tp656
a(I137
I134
tp657
a(I135
I133
tp658
a(I138
I135
tp659
a(I135
I133
tp660
a(I138
I135
tp661
a(I135
I133
tp662
a(I138
I134
tp663
a(I136
I134
tp664
a(I136
I133
tp665
a(I137
I134
tp666
a(I135
I133
tp667
a(I138
I134
tp668
a(I135
I132
tp669
a(I138
I135
tp670
a(I135
I133
tp671
a(I136
I133
tp672
a(I136
I134
tp673
a(I135
I133
tp674
a(I137
I135
tp675
a(I134
I132
tp676
a(I138
I135
tp677
a(I135
I133
tp678
a(I138
I134
tp679
a(I136
I133
tp680
a(I135
I133
tp681
a(I137
I134
tp682
a(I135
I132
tp683
a(I138
I135
tp684
a(I135
I132
tp685
a(I138
I135
tp686
a(I136
I133
tp687
a(I137
I134
tp688
a(I136
I134
tp689
a(I135
I133
tp690
a(I137
I135
tp691
a(I135
I132
tp692
a(I138
I135
tp693
a(I135
I133
tp694
a(I137
I134
tp695
a(I136
I133
tp696
a(I136
I133
tp697
a(I137
I134
tp698
a(I135
I132
tp699
a(I138
I136
tp700
a(I135
I132
tp701
a(I138
I135
tp702
a(I135
I133
tp703
a(I136
I133
tp704
a(I136
I134
tp705
a(I135
I133
tp706
a(I137
I135
tp707
a(I134
I132
tp708
a(I138
I135
tp709
a(I135
I132
tp710
a(I137
I134
tp711
a(I136
I133
tp712
a(I136
I133
tp713
a(I137
I134
tp714
a(I135
I133
tp715
asS'UP'
p716
(lp717
(I138
I134
tp718
a(I135
I132
tp719
a(I138
I135
tp720
a(I135
I133
tp721
a(I137
I134
tp722
a(I136
I133
tp723
a(I135
I132
tp724
a(I138
I134
tp725
a(I135
I132
tp726
a(I138
I134
tp727
a(I135
I132
tp728
a(I138
I134
tp729
a(I135
I133
tp730
a(I136
I133
tp731
a(I136
I134
tp732
a(I135
I132
tp733
a(I138
I135
tp734
a(I135
I133
tp735
a(I138
I134
tp736
a(I135
I133
tp737
a(I137
I134
tp738
a(I136
I133
tp739
a(I135
I133
tp740
a(I137
I135
tp741
a(I135
I132
tp742
a(I138
I134
tp743
a(I135
I132
tp744
a(I138
I135
tp745
a(I136
I133
tp746
a(I136
I133
tp747
a(I137
I134
tp748
a(I135
I132
tp749
a(I138
I135
tp750
a(I135
I132
tp751
a(I138
I134
tp752
a(I135
I132
tp753
a(I137
I134
tp754
a(I136
I133
tp755
a(I135
I132
tp756
a(I137
I134
tp757
a(I135
I132
tp758
a(I139
I135
tp759
a(I134
I132
tp760
a(I137
I135
tp761
a(I135
I133
tp762
a(I136
I133
tp763
a(I136
I133
tp764
a(I135
I132
tp765
a(I137
I134
tp766
a(I134
I132
tp767
a(I138
I135
tp768
a(I135
I132
tp769
a(I137
I134
tp770
a(I135
I133
tp771
a(I135
I132
tp772
a(I137
I134
tp773
a(I134
I132
tp774
a(I138
I134
tp775
a(I134
I132
tp776
a(I137
I135
tp777
a(I135
I132
tp778
a(I136
I133
tp779
a(I136
I133
tp780
a(I135
I132
tp781
a(I137
I134
tp782
a(I134
I132
tp783
a(I137
I134
tp784
a(I135
I132
tp785
a(I136
I133
tp786
a(I135
I132
tp787
a(I135
I132
tp788
a(I135
I133
tp789
a(I134
I131
tp790
a(I136
I133
tp791
a(I134
I131
tp792
a(I136
I133
tp793
a(I134
I132
tp794
a(I135
I132
tp795
a(I135
I132
tp796
a(I134
I131
tp797
a(I135
I133
tp798
a(I134
I131
tp799
a(I135
I133
tp800
a(I134
I131
tp801
a(I135
I132
tp802
a(I134
I132
tp803
a(I134
I131
tp804
a(I135
I132
tp805
a(I134
I131
tp806
a(I135
I133
tp807
a(I134
I131
tp808
a(I136
I133
tp809
a(I135
I132
tp810
a(I135
I132
tp811
a(I135
I132
tp812
a(I134
I132
tp813
a(I136
I133
tp814
a(I134
I132
tp815
a(I136
I133
tp816
a(I135
I132
tp817
asS'UP-RIGHT'
p818
(lp819
(I136
I133
tp820
a(I135
I132
tp821
a(I135
I132
tp822
a(I136
I133
tp823
a(I135
I132
tp824
a(I137
I134
tp825
a(I135
I133
tp826
a(I137
I134
tp827
a(I136
I133
tp828
a(I136
I133
tp829
a(I136
I134
tp830
a(I136
I133
tp831
a(I137
I134
tp832
a(I136
I133
tp833
a(I137
I134
tp834
a(I136
I133
tp835
a(I137
I134
tp836
a(I137
I134
tp837
a(I136
I134
tp838
a(I137
I134
tp839
a(I136
I133
tp840
a(I138
I135
tp841
a(I136
I134
tp842
a(I138
I135
tp843
a(I137
I134
tp844
a(I138
I135
tp845
a(I137
I135
tp846
a(I137
I134
tp847
a(I139
I135
tp848
a(I137
I134
tp849
a(I138
I135
tp850
a(I137
I134
tp851
a(I138
I135
tp852
a(I137
I135
tp853
a(I138
I135
tp854
a(I138
I135
tp855
a(I137
I134
tp856
a(I139
I135
tp857
a(I137
I134
tp858
a(I139
I136
tp859
a(I137
I134
tp860
a(I138
I135
tp861
a(I138
I135
tp862
a(I137
I135
tp863
a(I138
I136
tp864
a(I137
I135
tp865
a(I139
I136
tp866
a(I137
I134
tp867
a(I139
I136
tp868
a(I138
I135
tp869
a(I138
I135
tp870
a(I138
I136
tp871
a(I138
I135
tp872
a(I139
I136
tp873
a(I137
I134
tp874
a(I139
I136
tp875
a(I138
I135
tp876
a(I139
I136
tp877
a(I138
I135
tp878
a(I138
I135
tp879
a(I139
I136
tp880
a(I137
I135
tp881
a(I139
I136
tp882
a(I137
I135
tp883
a(I139
I136
tp884
a(I138
I136
tp885
a(I139
I136
tp886
a(I138
I136
tp887
a(I138
I135
tp888
a(I139
I136
tp889
a(I137
I135
tp890
a(I139
I136
tp891
a(I138
I135
tp892
a(I139
I136
tp893
a(I138
I135
tp894
a(I138
I135
tp895
a(I139
I136
tp896
a(I137
I135
tp897
a(I139
I136
tp898
a(I138
I135
tp899
a(I139
I136
tp900
a(I138
I135
tp901
a(I138
I135
tp902
a(I139
I136
tp903
a(I138
I135
tp904
a(I139
I136
tp905
a(I138
I135
tp906
a(I140
I136
tp907
a(I138
I135
tp908
a(I139
I136
tp909
a(I138
I136
tp910
a(I138
I135
tp911
a(I139
I136
tp912
a(I138
I135
tp913
a(I139
I136
tp914
a(I138
I135
tp915
a(I139
I136
tp916
a(I138
I135
tp917
a(I138
I136
tp918
a(I138
I136
tp919
asS'BLINK'
p920
(lp921
(I138
I135
tp922
a(I139
I136
tp923
a(I138
I135
tp924
a(I140
I136
tp925
a(I138
I135
tp926
a(I139
I136
tp927
a(I138
I135
tp928
a(I138
I135
tp929
a(I139
I136
tp930
a(I138
I135
tp931
a(I139
I136
tp932
a(I138
I135
tp933
a(I139
I136
tp934
a(I138
I135
tp935
a(I139
I136
tp936
a(I138
I136
tp937
a(I138
I135
tp938
a(I139
I136
tp939
a(I138
I135
tp940
a(I139
I136
tp941
a(I138
I135
tp942
a(I139
I136
tp943
a(I138
I136
tp944
a(I138
I135
tp945
a(I139
I136
tp946
a(I138
I135
tp947
a(I139
I136
tp948
a(I137
I135
tp949
a(I139
I136
tp950
a(I138
I135
tp951
a(I139
I136
tp952
a(I139
I136
tp953
a(I138
I135
tp954
a(I139
I136
tp955
a(I137
I135
tp956
a(I139
I136
tp957
a(I138
I135
tp958
a(I139
I136
tp959
a(I138
I136
tp960
a(I138
I135
tp961
a(I139
I136
tp962
a(I138
I135
tp963
a(I139
I136
tp964
a(I137
I135
tp965
a(I139
I136
tp966
a(I138
I135
tp967
a(I139
I136
tp968
a(I138
I136
tp969
a(I138
I135
tp970
a(I139
I136
tp971
a(I137
I135
tp972
a(I139
I136
tp973
a(I137
I135
tp974
a(I139
I136
tp975
a(I138
I135
tp976
a(I138
I135
tp977
a(I138
I135
tp978
a(I138
I135
tp979
a(I139
I136
tp980
a(I137
I135
tp981
a(I139
I136
tp982
a(I137
I135
tp983
a(I138
I135
tp984
a(I138
I135
tp985
a(I137
I135
tp986
a(I139
I136
tp987
a(I137
I135
tp988
a(I139
I136
tp989
a(I137
I135
tp990
a(I139
I136
tp991
a(I138
I135
tp992
a(I138
I135
tp993
a(I138
I135
tp994
a(I137
I135
tp995
a(I139
I136
tp996
a(I137
I134
tp997
a(I139
I136
tp998
a(I138
I135
tp999
a(I138
I136
tp1000
a(I138
I135
tp1001
a(I138
I135
tp1002
a(I138
I136
tp1003
a(I137
I135
tp1004
a(I139
I136
tp1005
a(I137
I135
tp1006
a(I139
I136
tp1007
a(I138
I135
tp1008
a(I138
I135
tp1009
a(I138
I135
tp1010
a(I138
I135
tp1011
a(I139
I136
tp1012
a(I137
I135
tp1013
a(I139
I136
tp1014
a(I138
I135
tp1015
a(I139
I136
tp1016
a(I138
I135
tp1017
a(I138
I135
tp1018
a(I139
I136
tp1019
a(I138
I135
tp1020
a(I139
I136
tp1021
as.